; Function Attrs: mustprogress nofree norecurse nosync nounwind willreturn memory(read, inaccessiblemem: none) uwtable
define ptr @Cudd_ReadVars(ptr noundef readonly captures(none) %0, i32 noundef %1) local_unnamed_addr #4 {
  %3 = icmp slt i32 %1, 0
  br i1 %3, label %14, label %4

4:                                                ; preds = %2
  %5 = getelementptr inbounds nuw i8, ptr %0, i64 136
  %6 = load i32, ptr %5, align 8
  %7 = icmp sgt i32 %1, %6
  br i1 %7, label %14, label %8

8:                                                ; preds = %4
  %9 = getelementptr inbounds nuw i8, ptr %0, i64 344
  %10 = load ptr, ptr %9, align 8
  %11 = zext nneg i32 %1 to i64
  %12 = getelementptr inbounds nuw ptr, ptr %10, i64 %11
  %13 = load ptr, ptr %12, align 8
  br label %14

14:                                               ; preds = %2, %4, %8
  %.0 = phi ptr [ %13, %8 ], [ null, %4 ], [ null, %2 ]
  ret ptr %.0
}